target datalayout = "e-m:e-p270:32:32-p271:32:32-p272:64:64-i64:64-i128:128-f80:128-n8:16:32:64-S128"
target triple = "x86_64-pc-linux-gnu"

%class.dtPathQueue = type { [8 x %"struct.dtPathQueue::PathQuery"], i32, i32, i32, ptr }
%"struct.dtPathQueue::PathQuery" = type { i32, [3 x float], [3 x float], i32, i32, ptr, i32, i32, i32, ptr }

; Function Attrs: mustprogress nounwind uwtable
define linkonce_odr void @_Z7dtVcopyPfPKf(ptr noundef %0, ptr noundef %1) #0 comdat {
  %3 = alloca ptr, align 8
  %4 = alloca ptr, align 8
  store ptr %0, ptr %3, align 8
  store ptr %1, ptr %4, align 8
  %5 = load ptr, ptr %4, align 8
  %6 = getelementptr inbounds float, ptr %5, i64 0
  %7 = load float, ptr %6, align 4
  %8 = load ptr, ptr %3, align 8
  %9 = getelementptr inbounds float, ptr %8, i64 0
  store float %7, ptr %9, align 4
  %10 = load ptr, ptr %4, align 8
  %11 = getelementptr inbounds float, ptr %10, i64 1
  %12 = load float, ptr %11, align 4
  %13 = load ptr, ptr %3, align 8
  %14 = getelementptr inbounds float, ptr %13, i64 1
  store float %12, ptr %14, align 4
  %15 = load ptr, ptr %4, align 8
  %16 = getelementptr inbounds float, ptr %15, i64 2
  %17 = load float, ptr %16, align 4
  %18 = load ptr, ptr %3, align 8
  %19 = getelementptr inbounds float, ptr %18, i64 2
  store float %17, ptr %19, align 4
  ret void
}

; Function Attrs: mustprogress uwtable
define noundef i32 @_ZN11dtPathQueue7requestEjjPKfS1_PK13dtQueryFilter(ptr noundef nonnull align 8 dereferenceable(600) %0, i32 noundef %1, i32 noundef %2, ptr noundef %3, ptr noundef %4, ptr noundef %5) #1 align 2 {
  %7 = alloca i32, align 4
  %8 = alloca ptr, align 8
  %9 = alloca i32, align 4
  %10 = alloca i32, align 4
  %11 = alloca ptr, align 8
  %12 = alloca ptr, align 8
  %13 = alloca ptr, align 8
  %14 = alloca i32, align 4
  %15 = alloca i32, align 4
  %16 = alloca i32, align 4
  %17 = alloca ptr, align 8
  store ptr %0, ptr %8, align 8
  store i32 %1, ptr %9, align 4
  store i32 %2, ptr %10, align 4
  store ptr %3, ptr %11, align 8
  store ptr %4, ptr %12, align 8
  store ptr %5, ptr %13, align 8
  %18 = load ptr, ptr %8, align 8
  store i32 -1, ptr %14, align 4
  store i32 0, ptr %15, align 4
  br label %19

19:                                               ; preds = %33, %6
  %20 = load i32, ptr %15, align 4
  %21 = icmp slt i32 %20, 8
  br i1 %21, label %22, label %36

22:                                               ; preds = %19
  %23 = getelementptr inbounds %class.dtPathQueue, ptr %18, i32 0, i32 0
  %24 = load i32, ptr %15, align 4
  %25 = sext i32 %24 to i64
  %26 = getelementptr inbounds [8 x %"struct.dtPathQueue::PathQuery"], ptr %23, i64 0, i64 %25
  %27 = getelementptr inbounds %"struct.dtPathQueue::PathQuery", ptr %26, i32 0, i32 0
  %28 = load i32, ptr %27, align 8
  %29 = icmp eq i32 %28, 0
  br i1 %29, label %30, label %32

30:                                               ; preds = %22
  %31 = load i32, ptr %15, align 4
  store i32 %31, ptr %14, align 4
  br label %36

32:                                               ; preds = %22
  br label %33

33:                                               ; preds = %32
  %34 = load i32, ptr %15, align 4
  %35 = add nsw i32 %34, 1
  store i32 %35, ptr %15, align 4
  br label %19, !llvm.loop !9

36:                                               ; preds = %30, %19
  %37 = load i32, ptr %14, align 4
  %38 = icmp eq i32 %37, -1
  br i1 %38, label %39, label %40

39:                                               ; preds = %36
  store i32 0, ptr %7, align 4
  br label %83

40:                                               ; preds = %36
  %41 = getelementptr inbounds %class.dtPathQueue, ptr %18, i32 0, i32 1
  %42 = load i32, ptr %41, align 8
  %43 = add i32 %42, 1
  store i32 %43, ptr %41, align 8
  store i32 %42, ptr %16, align 4
  %44 = getelementptr inbounds %class.dtPathQueue, ptr %18, i32 0, i32 1
  %45 = load i32, ptr %44, align 8
  %46 = icmp eq i32 %45, 0
  br i1 %46, label %47, label %51

47:                                               ; preds = %40
  %48 = getelementptr inbounds %class.dtPathQueue, ptr %18, i32 0, i32 1
  %49 = load i32, ptr %48, align 8
  %50 = add i32 %49, 1
  store i32 %50, ptr %48, align 8
  br label %51

51:                                               ; preds = %47, %40
  %52 = getelementptr inbounds %class.dtPathQueue, ptr %18, i32 0, i32 0
  %53 = load i32, ptr %14, align 4
  %54 = sext i32 %53 to i64
  %55 = getelementptr inbounds [8 x %"struct.dtPathQueue::PathQuery"], ptr %52, i64 0, i64 %54
  store ptr %55, ptr %17, align 8
  %56 = load i32, ptr %16, align 4
  %57 = load ptr, ptr %17, align 8
  %58 = getelementptr inbounds %"struct.dtPathQueue::PathQuery", ptr %57, i32 0, i32 0
  store i32 %56, ptr %58, align 8
  %59 = load ptr, ptr %17, align 8
  %60 = getelementptr inbounds %"struct.dtPathQueue::PathQuery", ptr %59, i32 0, i32 1
  %61 = getelementptr inbounds [3 x float], ptr %60, i64 0, i64 0
  %62 = load ptr, ptr %11, align 8
  call void @_Z7dtVcopyPfPKf(ptr noundef %61, ptr noundef %62)
  %63 = load i32, ptr %9, align 4
  %64 = load ptr, ptr %17, align 8
  %65 = getelementptr inbounds %"struct.dtPathQueue::PathQuery", ptr %64, i32 0, i32 3
  store i32 %63, ptr %65, align 4
  %66 = load ptr, ptr %17, align 8
  %67 = getelementptr inbounds %"struct.dtPathQueue::PathQuery", ptr %66, i32 0, i32 2
  %68 = getelementptr inbounds [3 x float], ptr %67, i64 0, i64 0
  %69 = load ptr, ptr %12, align 8
  call void @_Z7dtVcopyPfPKf(ptr noundef %68, ptr noundef %69)
  %70 = load i32, ptr %10, align 4
  %71 = load ptr, ptr %17, align 8
  %72 = getelementptr inbounds %"struct.dtPathQueue::PathQuery", ptr %71, i32 0, i32 4
  store i32 %70, ptr %72, align 8
  %73 = load ptr, ptr %17, align 8
  %74 = getelementptr inbounds %"struct.dtPathQueue::PathQuery", ptr %73, i32 0, i32 7
  store i32 0, ptr %74, align 4
  %75 = load ptr, ptr %17, align 8
  %76 = getelementptr inbounds %"struct.dtPathQueue::PathQuery", ptr %75, i32 0, i32 6
  store i32 0, ptr %76, align 8
  %77 = load ptr, ptr %13, align 8
  %78 = load ptr, ptr %17, align 8
  %79 = getelementptr inbounds %"struct.dtPathQueue::PathQuery", ptr %78, i32 0, i32 9
  store ptr %77, ptr %79, align 8
  %80 = load ptr, ptr %17, align 8
  %81 = getelementptr inbounds %"struct.dtPathQueue::PathQuery", ptr %80, i32 0, i32 8
  store i32 0, ptr %81, align 8
  %82 = load i32, ptr %16, align 4
  store i32 %82, ptr %7, align 4
  br label %83

83:                                               ; preds = %51, %39
  %84 = load i32, ptr %7, align 4
  ret i32 %84
}