; Function Attrs: mustprogress nofree norecurse nosync nounwind memory(argmem: readwrite) uwtable
define noundef i32 @_ZN11dtPathQueue7requestEjjPKfS1_PK13dtQueryFilter(ptr noundef nonnull align 8 captures(none) dereferenceable(600) %0, i32 noundef %1, i32 noundef %2, ptr noundef readonly captures(none) %3, ptr noundef readonly captures(none) %4, ptr noundef %5) local_unnamed_addr #6 align 2 {
  br label %7

7:                                                ; preds = %6, %11
  %indvars.iv = phi i64 [ 0, %6 ], [ %indvars.iv.next, %11 ]
  %8 = getelementptr inbounds nuw [8 x %"struct.dtPathQueue::PathQuery"], ptr %0, i64 0, i64 %indvars.iv
  %9 = load i32, ptr %8, align 8
  %10 = icmp eq i32 %9, 0
  br i1 %10, label %12, label %11

11:                                               ; preds = %7
  %indvars.iv.next = add nuw nsw i64 %indvars.iv, 1
  %exitcond.not = icmp eq i64 %indvars.iv.next, 8
  br i1 %exitcond.not, label %.thread, label %7, !llvm.loop !9

12:                                               ; preds = %7
  %13 = getelementptr inbounds nuw i8, ptr %0, i64 576
  %14 = load i32, ptr %13, align 8
  %15 = add i32 %14, 1
  %spec.select = tail call i32 @llvm.umax.i32(i32 %15, i32 1)
  store i32 %spec.select, ptr %13, align 8
  %16 = and i64 %indvars.iv, 4294967295
  %17 = getelementptr inbounds nuw [8 x %"struct.dtPathQueue::PathQuery"], ptr %0, i64 0, i64 %16
  store i32 %14, ptr %17, align 8
  %18 = getelementptr inbounds nuw i8, ptr %17, i64 4
  %19 = load float, ptr %3, align 4
  store float %19, ptr %18, align 4
  %20 = getelementptr inbounds nuw i8, ptr %3, i64 4
  %21 = load float, ptr %20, align 4
  %22 = getelementptr inbounds nuw i8, ptr %17, i64 8
  store float %21, ptr %22, align 8
  %23 = getelementptr inbounds nuw i8, ptr %3, i64 8
  %24 = load float, ptr %23, align 4
  %25 = getelementptr inbounds nuw i8, ptr %17, i64 12
  store float %24, ptr %25, align 4
  %26 = getelementptr inbounds nuw i8, ptr %17, i64 28
  store i32 %1, ptr %26, align 4
  %27 = getelementptr inbounds nuw i8, ptr %17, i64 16
  %28 = load float, ptr %4, align 4
  store float %28, ptr %27, align 8
  %29 = getelementptr inbounds nuw i8, ptr %4, i64 4
  %30 = load float, ptr %29, align 4
  %31 = getelementptr inbounds nuw i8, ptr %17, i64 20
  store float %30, ptr %31, align 4
  %32 = getelementptr inbounds nuw i8, ptr %4, i64 8
  %33 = load float, ptr %32, align 4
  %34 = getelementptr inbounds nuw i8, ptr %17, i64 24
  store float %33, ptr %34, align 8
  %35 = getelementptr inbounds nuw i8, ptr %17, i64 32
  store i32 %2, ptr %35, align 8
  %36 = getelementptr inbounds nuw i8, ptr %17, i64 52
  store i32 0, ptr %36, align 4
  %37 = getelementptr inbounds nuw i8, ptr %17, i64 48
  store i32 0, ptr %37, align 8
  %38 = getelementptr inbounds nuw i8, ptr %17, i64 64
  store ptr %5, ptr %38, align 8
  %39 = getelementptr inbounds nuw i8, ptr %17, i64 56
  store i32 0, ptr %39, align 8
  br label %.thread

.thread:                                          ; preds = %11, %12
  %.0 = phi i32 [ %14, %12 ], [ 0, %11 ]
  ret i32 %.0
}